target datalayout = "e-m:e-p270:32:32-p271:32:32-p272:64:64-i64:64-i128:128-f80:128-n8:16:32:64-S128"
target triple = "x86_64-pc-linux-gnu"

%struct.gmx_ana_index_t = type { i32, ptr, i32 }
%struct.t_methoddata_kweval = type { ptr, ptr, %struct.gmx_ana_index_t, %struct.gmx_ana_pos_t }
%struct.gmx_ana_pos_t = type <{ ptr, ptr, ptr, %struct.gmx_ana_indexmap_t, i32, [4 x i8] }>
%struct.gmx_ana_indexmap_t = type { i32, ptr, ptr, %struct.t_blocka, ptr, %struct.t_blocka, i8 }
%struct.t_blocka = type { i32, ptr, i32, ptr, i32, i32 }

; Function Attrs: mustprogress nounwind uwtable
define linkonce_odr void @_ZN19t_methoddata_kwevalD2Ev(ptr noundef nonnull align 8 dereferenceable(192) %0) unnamed_addr #1 comdat align 2 personality ptr @__gxx_personality_v0 {
  %2 = alloca ptr, align 8
  store ptr %0, ptr %2, align 8, !tbaa !1216
  %3 = load ptr, ptr %2, align 8
  %4 = getelementptr inbounds nuw %struct.t_methoddata_kweval, ptr %3, i32 0, i32 0
  %5 = load ptr, ptr %4, align 8, !tbaa !1218
  %6 = getelementptr inbounds nuw %struct.t_methoddata_kweval, ptr %3, i32 0, i32 1
  %7 = load ptr, ptr %6, align 8, !tbaa !1324
  invoke void @_Z24_gmx_selelem_free_methodP19gmx_ana_selmethod_tPv(ptr noundef %5, ptr noundef %7)
          to label %8 unwind label %10

8:                                                ; preds = %1
  %9 = getelementptr inbounds nuw %struct.t_methoddata_kweval, ptr %3, i32 0, i32 3
  call void @_ZN13gmx_ana_pos_tD1Ev(ptr noundef nonnull align 8 dereferenceable(148) %9) #22
  ret void

10:                                               ; preds = %1
  %11 = landingpad { ptr, i32 }
          catch ptr null
  %12 = extractvalue { ptr, i32 } %11, 0
  call void @__clang_call_terminate(ptr %12) #28
  unreachable
}

; Function Attrs: mustprogress nounwind uwtable
define internal void @_ZL16free_data_kwevalPv(ptr noundef %0) #1 {
  %2 = alloca ptr, align 8
  %3 = alloca ptr, align 8
  store ptr %0, ptr %2, align 8, !tbaa !15
  call void @llvm.lifetime.start.p0(i64 8, ptr %3) #22
  %4 = load ptr, ptr %2, align 8, !tbaa !15
  store ptr %4, ptr %3, align 8, !tbaa !1216
  %5 = load ptr, ptr %3, align 8, !tbaa !1216
  %6 = icmp eq ptr %5, null
  br i1 %6, label %8, label %7

7:                                                ; preds = %1
  call void @_ZN19t_methoddata_kwevalD2Ev(ptr noundef nonnull align 8 dereferenceable(192) %5) #22
  call void @_ZdlPvm(ptr noundef %5, i64 noundef 192) #26
  br label %8

8:                                                ; preds = %7, %1
  call void @llvm.lifetime.end.p0(i64 8, ptr %3) #22
  ret void
}