; Function Attrs: mustprogress nounwind uwtable
define internal void @_ZL16free_data_kwevalPv(ptr noundef %0) #5 personality ptr @__gxx_personality_v0 {
  %2 = icmp eq ptr %0, null
  br i1 %2, label %11, label %3

3:                                                ; preds = %1
  %4 = load ptr, ptr %0, align 8, !tbaa !823
  %5 = getelementptr inbounds nuw i8, ptr %0, i64 8
  %6 = load ptr, ptr %5, align 8, !tbaa !830
  invoke void @_Z24_gmx_selelem_free_methodP19gmx_ana_selmethod_tPv(ptr noundef %4, ptr noundef %6)
          to label %_ZN19t_methoddata_kwevalD2Ev.exit unwind label %7

7:                                                ; preds = %3
  %8 = landingpad { ptr, i32 }
          catch ptr null
  %9 = extractvalue { ptr, i32 } %8, 0
  tail call void @__clang_call_terminate(ptr %9) #34
  unreachable

_ZN19t_methoddata_kwevalD2Ev.exit:                ; preds = %3
  %10 = getelementptr inbounds nuw i8, ptr %0, i64 40
  tail call void @_ZN13gmx_ana_pos_tD1Ev(ptr noundef nonnull align 8 dereferenceable(148) %10) #33
  tail call void @_ZdlPvm(ptr noundef nonnull %0, i64 noundef 192) #32
  br label %11

11:                                               ; preds = %_ZN19t_methoddata_kwevalD2Ev.exit, %1
  ret void
}